target datalayout = "e-m:e-p270:32:32-p271:32:32-p272:64:64-i64:64-i128:128-f80:128-n8:16:32:64-S128"
target triple = "x86_64-pc-linux-gnu"

%struct.jit_State = type { %struct.GCtrace, ptr, ptr, ptr, ptr, ptr, ptr, i32, i32, i32, i8, i8, %struct.IRType1, i8, %struct.FoldState, ptr, i32, i32, i32, i32, i32, i32, i32, [1 x i32], [5 x %union.TValue], [3 x %union.TValue], ptr, i32, i32, i32, i32, ptr, ptr, i32, i32, i8, ptr, i32, i32, i16, [101 x i16], [258 x i32], [15 x i32], [16 x ptr], [64 x %struct.HotPenalty], i32, [16 x %struct.BPropEntry], i32, %struct.ScEvEntry, ptr, i32, i32, i32, ptr, i32, i32, ptr, ptr, ptr, i64, i64, %union.TValue, ptr, i32, i32 }
%struct.GCtrace = type { %struct.GCRef, i8, i8, i16, i32, i32, %struct.GCRef, ptr, i32, i32, ptr, ptr, %struct.GCRef, %struct.MRef, i32, i32, ptr, i32, i16, i16, i16, i16, i16, i16, i16, i8, i8, i8, i8 }
%struct.GCRef = type { i64 }
%struct.MRef = type { i64 }
%struct.IRType1 = type { i8 }
%struct.FoldState = type { %union.IRIns, [2 x %union.IRIns], [2 x %union.IRIns] }
%union.IRIns = type { %struct.GCRef }
%struct.HotPenalty = type { %struct.MRef, i16, i16 }
%struct.BPropEntry = type { i16, i16, i32 }
%struct.ScEvEntry = type { %struct.MRef, i16, i16, i16, i16, %struct.IRType1, i8 }
%union.TValue = type { i64 }
%struct.anon.0 = type { i32, %struct.IRType1, i8, i8, i8 }
%struct.anon = type { i16, i16, i16, i16 }

; Function Attrs: alwaysinline nounwind uwtable
define internal i32 @ir_nextk64(ptr noundef %0) #5 {
  %2 = alloca ptr, align 8
  %3 = alloca i32, align 4
  store ptr %0, ptr %2, align 8, !tbaa !4
  call void @llvm.lifetime.start.p0(i64 4, ptr %3) #10
  %4 = load ptr, ptr %2, align 8, !tbaa !4
  %5 = getelementptr inbounds nuw %struct.jit_State, ptr %4, i32 0, i32 0
  %6 = getelementptr inbounds nuw %struct.GCtrace, ptr %5, i32 0, i32 8
  %7 = load i32, ptr %6, align 8, !tbaa !50
  %8 = sub i32 %7, 2
  store i32 %8, ptr %3, align 4, !tbaa !32
  %9 = load i32, ptr %3, align 4, !tbaa !32
  %10 = load ptr, ptr %2, align 8, !tbaa !4
  %11 = getelementptr inbounds nuw %struct.jit_State, ptr %10, i32 0, i32 28
  %12 = load i32, ptr %11, align 4, !tbaa !29
  %13 = icmp ult i32 %9, %12
  %14 = xor i1 %13, true
  %15 = xor i1 %14, true
  %16 = zext i1 %15 to i32
  %17 = sext i32 %16 to i64
  %18 = call i64 @llvm.expect.i64(i64 %17, i64 0)
  %19 = icmp ne i64 %18, 0
  br i1 %19, label %20, label %22

20:                                               ; preds = %1
  %21 = load ptr, ptr %2, align 8, !tbaa !4
  call void @lj_ir_growbot(ptr noundef %21)
  br label %22

22:                                               ; preds = %20, %1
  %23 = load i32, ptr %3, align 4, !tbaa !32
  %24 = load ptr, ptr %2, align 8, !tbaa !4
  %25 = getelementptr inbounds nuw %struct.jit_State, ptr %24, i32 0, i32 0
  %26 = getelementptr inbounds nuw %struct.GCtrace, ptr %25, i32 0, i32 8
  store i32 %23, ptr %26, align 8, !tbaa !50
  %27 = load i32, ptr %3, align 4, !tbaa !32
  call void @llvm.lifetime.end.p0(i64 4, ptr %3) #10
  ret i32 %27
}

; Function Attrs: nounwind uwtable
define hidden i32 @lj_ir_kptr_(ptr noundef %0, i32 noundef %1, ptr noundef %2) #3 {
  %4 = alloca ptr, align 8
  %5 = alloca i32, align 4
  %6 = alloca ptr, align 8
  %7 = alloca ptr, align 8
  %8 = alloca ptr, align 8
  %9 = alloca i32, align 4
  store ptr %0, ptr %4, align 8, !tbaa !4
  store i32 %1, ptr %5, align 4, !tbaa !32
  store ptr %2, ptr %6, align 8, !tbaa !58
  call void @llvm.lifetime.start.p0(i64 8, ptr %7) #10
  call void @llvm.lifetime.start.p0(i64 8, ptr %8) #10
  %10 = load ptr, ptr %4, align 8, !tbaa !4
  %11 = getelementptr inbounds nuw %struct.jit_State, ptr %10, i32 0, i32 0
  %12 = getelementptr inbounds nuw %struct.GCtrace, ptr %11, i32 0, i32 7
  %13 = load ptr, ptr %12, align 8, !tbaa !34
  store ptr %13, ptr %8, align 8, !tbaa !30
  call void @llvm.lifetime.start.p0(i64 4, ptr %9) #10
  %14 = load ptr, ptr %4, align 8, !tbaa !4
  %15 = getelementptr inbounds nuw %struct.jit_State, ptr %14, i32 0, i32 40
  %16 = load i32, ptr %5, align 4, !tbaa !32
  %17 = zext i32 %16 to i64
  %18 = getelementptr inbounds nuw [101 x i16], ptr %15, i64 0, i64 %17
  %19 = load i16, ptr %18, align 2, !tbaa !36
  %20 = zext i16 %19 to i32
  store i32 %20, ptr %9, align 4, !tbaa !32
  br label %21

21:                                               ; preds = %37, %3
  %22 = load i32, ptr %9, align 4, !tbaa !32
  %23 = icmp ne i32 %22, 0
  br i1 %23, label %24, label %45

24:                                               ; preds = %21
  %25 = load ptr, ptr %8, align 8, !tbaa !30
  %26 = load i32, ptr %9, align 4, !tbaa !32
  %27 = zext i32 %26 to i64
  %28 = getelementptr inbounds nuw %union.IRIns, ptr %25, i64 %27
  %29 = getelementptr inbounds %union.IRIns, ptr %28, i64 1
  %30 = getelementptr inbounds nuw %struct.MRef, ptr %29, i32 0, i32 0
  %31 = load i64, ptr %30, align 8, !tbaa !35
  %32 = inttoptr i64 %31 to ptr
  %33 = load ptr, ptr %6, align 8, !tbaa !58
  %34 = icmp eq ptr %32, %33
  br i1 %34, label %35, label %36

35:                                               ; preds = %24
  br label %84

36:                                               ; preds = %24
  br label %37

37:                                               ; preds = %36
  %38 = load ptr, ptr %8, align 8, !tbaa !30
  %39 = load i32, ptr %9, align 4, !tbaa !32
  %40 = zext i32 %39 to i64
  %41 = getelementptr inbounds nuw %union.IRIns, ptr %38, i64 %40
  %42 = getelementptr inbounds nuw %struct.anon, ptr %41, i32 0, i32 3
  %43 = load i16, ptr %42, align 2, !tbaa !35
  %44 = zext i16 %43 to i32
  store i32 %44, ptr %9, align 4, !tbaa !32
  br label %21, !llvm.loop !59

45:                                               ; preds = %21
  %46 = load ptr, ptr %4, align 8, !tbaa !4
  %47 = call i32 @ir_nextk64(ptr noundef %46)
  store i32 %47, ptr %9, align 4, !tbaa !32
  %48 = load ptr, ptr %4, align 8, !tbaa !4
  %49 = getelementptr inbounds nuw %struct.jit_State, ptr %48, i32 0, i32 0
  %50 = getelementptr inbounds nuw %struct.GCtrace, ptr %49, i32 0, i32 7
  %51 = load ptr, ptr %50, align 8, !tbaa !34
  %52 = load i32, ptr %9, align 4, !tbaa !32
  %53 = zext i32 %52 to i64
  %54 = getelementptr inbounds nuw %union.IRIns, ptr %51, i64 %53
  store ptr %54, ptr %7, align 8, !tbaa !30
  %55 = load ptr, ptr %7, align 8, !tbaa !30
  %56 = getelementptr inbounds nuw %struct.anon.0, ptr %55, i32 0, i32 0
  store i32 0, ptr %56, align 8, !tbaa !35
  %57 = load ptr, ptr %6, align 8, !tbaa !58
  %58 = ptrtoint ptr %57 to i64
  %59 = load ptr, ptr %7, align 8, !tbaa !30
  %60 = getelementptr inbounds %union.IRIns, ptr %59, i64 1
  %61 = getelementptr inbounds nuw %struct.MRef, ptr %60, i32 0, i32 0
  store i64 %58, ptr %61, align 8, !tbaa !35
  %62 = load ptr, ptr %7, align 8, !tbaa !30
  %63 = getelementptr inbounds nuw %struct.anon.0, ptr %62, i32 0, i32 1
  %64 = getelementptr inbounds nuw %struct.IRType1, ptr %63, i32 0, i32 0
  store i8 9, ptr %64, align 4, !tbaa !35
  %65 = load i32, ptr %5, align 4, !tbaa !32
  %66 = trunc i32 %65 to i8
  %67 = load ptr, ptr %7, align 8, !tbaa !30
  %68 = getelementptr inbounds nuw %struct.anon.0, ptr %67, i32 0, i32 2
  store i8 %66, ptr %68, align 1, !tbaa !35
  %69 = load ptr, ptr %4, align 8, !tbaa !4
  %70 = getelementptr inbounds nuw %struct.jit_State, ptr %69, i32 0, i32 40
  %71 = load i32, ptr %5, align 4, !tbaa !32
  %72 = zext i32 %71 to i64
  %73 = getelementptr inbounds nuw [101 x i16], ptr %70, i64 0, i64 %72
  %74 = load i16, ptr %73, align 2, !tbaa !36
  %75 = load ptr, ptr %7, align 8, !tbaa !30
  %76 = getelementptr inbounds nuw %struct.anon, ptr %75, i32 0, i32 3
  store i16 %74, ptr %76, align 2, !tbaa !35
  %77 = load i32, ptr %9, align 4, !tbaa !32
  %78 = trunc i32 %77 to i16
  %79 = load ptr, ptr %4, align 8, !tbaa !4
  %80 = getelementptr inbounds nuw %struct.jit_State, ptr %79, i32 0, i32 40
  %81 = load i32, ptr %5, align 4, !tbaa !32
  %82 = zext i32 %81 to i64
  %83 = getelementptr inbounds nuw [101 x i16], ptr %80, i64 0, i64 %82
  store i16 %78, ptr %83, align 2, !tbaa !36
  br label %84

84:                                               ; preds = %45, %35
  %85 = load i32, ptr %9, align 4, !tbaa !32
  %86 = add i32 %85, 150994944
  call void @llvm.lifetime.end.p0(i64 4, ptr %9) #10
  call void @llvm.lifetime.end.p0(i64 8, ptr %8) #10
  call void @llvm.lifetime.end.p0(i64 8, ptr %7) #10
  ret i32 %86
}