; Function Attrs: nounwind uwtable
define hidden i32 @lj_ir_kptr_(ptr noundef captures(none) %0, i32 noundef %1, ptr noundef %2) local_unnamed_addr #6 {
  %4 = getelementptr inbounds nuw i8, ptr %0, i64 32
  %5 = load ptr, ptr %4, align 8, !tbaa !30
  %6 = getelementptr inbounds nuw i8, ptr %0, i64 402
  %7 = zext i32 %1 to i64
  %8 = getelementptr inbounds nuw [101 x i16], ptr %6, i64 0, i64 %7
  %.0.in24 = load i16, ptr %8, align 2, !tbaa !33
  %.not25 = icmp eq i16 %.0.in24, 0
  br i1 %.not25, label %._crit_edge, label %.lr.ph

9:                                                ; preds = %.lr.ph
  %10 = getelementptr inbounds nuw i8, ptr %12, i64 6
  %.0.in = load i16, ptr %10, align 2, !tbaa !33
  %.not = icmp eq i16 %.0.in, 0
  br i1 %.not, label %._crit_edge, label %.lr.ph, !llvm.loop !47

.lr.ph:                                           ; preds = %3, %9
  %.0.in26 = phi i16 [ %.0.in, %9 ], [ %.0.in24, %3 ]
  %11 = zext i16 %.0.in26 to i64
  %12 = getelementptr inbounds nuw %union.IRIns, ptr %5, i64 %11
  %13 = getelementptr inbounds nuw i8, ptr %12, i64 8
  %14 = load i64, ptr %13, align 8, !tbaa !33
  %15 = inttoptr i64 %14 to ptr
  %16 = icmp eq ptr %2, %15
  br i1 %16, label %.loopexit, label %9

._crit_edge:                                      ; preds = %9, %3
  %17 = getelementptr inbounds nuw i8, ptr %0, i64 40
  %18 = load i32, ptr %17, align 8, !tbaa !43
  %19 = add i32 %18, -2
  %20 = getelementptr inbounds nuw i8, ptr %0, i64 340
  %21 = load i32, ptr %20, align 4, !tbaa !4
  %22 = icmp ult i32 %19, %21
  br i1 %22, label %23, label %ir_nextk64.exit, !prof !45

23:                                               ; preds = %._crit_edge
  tail call fastcc void @lj_ir_growbot(ptr noundef nonnull %0)
  %.pre = load ptr, ptr %4, align 8, !tbaa !30
  br label %ir_nextk64.exit

ir_nextk64.exit:                                  ; preds = %._crit_edge, %23
  %24 = phi ptr [ %5, %._crit_edge ], [ %.pre, %23 ]
  store i32 %19, ptr %17, align 8, !tbaa !43
  %25 = zext i32 %19 to i64
  %26 = getelementptr inbounds nuw %union.IRIns, ptr %24, i64 %25
  store i32 0, ptr %26, align 8, !tbaa !33
  %27 = ptrtoint ptr %2 to i64
  %28 = getelementptr inbounds nuw i8, ptr %26, i64 8
  store i64 %27, ptr %28, align 8, !tbaa !33
  %29 = getelementptr inbounds nuw i8, ptr %26, i64 4
  store i8 9, ptr %29, align 4, !tbaa !33
  %30 = trunc i32 %1 to i8
  %31 = getelementptr inbounds nuw i8, ptr %26, i64 5
  store i8 %30, ptr %31, align 1, !tbaa !33
  %32 = load i16, ptr %8, align 2, !tbaa !34
  %33 = getelementptr inbounds nuw i8, ptr %26, i64 6
  store i16 %32, ptr %33, align 2, !tbaa !33
  %34 = trunc i32 %19 to i16
  store i16 %34, ptr %8, align 2, !tbaa !34
  br label %35

.loopexit:                                        ; preds = %.lr.ph
  %.0.le = zext i16 %.0.in26 to i32
  br label %35

35:                                               ; preds = %.loopexit, %ir_nextk64.exit
  %.1 = phi i32 [ %19, %ir_nextk64.exit ], [ %.0.le, %.loopexit ]
  %36 = add i32 %.1, 150994944
  ret i32 %36
}